(dp0
S'I3D_PLATFORM_IPHONE'
p1
NsS'I3D_OS_IPHONE'
p2
NsS'IW_MKF_S3ENEXTPEER_BUILD'
p3
NsS'IW_TRACE_CHANNEL_NEXTPEER_VERBOSE'
p4
S'2'
p5
sS'IW_SDK'
p6
NsS'S3E_EXT_NEXTPEER'
p7
NsS'IW_USE_ASSERTIONS'
p8
NsS'IW_PLATFORM_IPHONE'
p9
NsS'__IPHONE_OS_VERSION_MIN_REQUIRED'
p10
S'2000'
p11
sS'S3E_BUILD_EXT'
p12
NsS'I3D_ARCH_X86'
p13
NsS'IW_ASSERTION_CHANNEL_NEXTPEER'
p14
S'1'
p15
sS'IW_MKF_EDK'
p16
NsS'IW_TRACE_CHANNEL_NEXTPEER'
p17
g15
sS'IW_DEBUG'
p18
NsS'IW_USE_TRACING'
p19
Ns.